; Function Attrs: mustprogress uwtable
define noundef zeroext i1 @_ZNK10open_spiel14colored_trails18ColoredTrailsState12IsLegalTradeEiRKNS0_5TradeE(ptr nocapture noundef nonnull readonly align 8 dereferenceable(280) %0, i32 noundef %1, ptr noundef nonnull align 8 dereferenceable(48) %2) local_unnamed_addr #3 align 2 {
  %4 = getelementptr inbounds i8, ptr %0, i64 136
  %5 = sext i32 %1 to i64
  %6 = load ptr, ptr %4, align 8
  %7 = getelementptr inbounds %"class.std::vector", ptr %6, i64 %5
  %8 = getelementptr inbounds i8, ptr %6, i64 48
  %9 = getelementptr inbounds i8, ptr %0, i64 76
  %.val = load i32, ptr %9, align 4
  %.val2 = load ptr, ptr %7, align 8
  %.val3 = load ptr, ptr %8, align 8
  %10 = tail call fastcc noundef zeroext i1 @_ZN10open_spiel14colored_trails12_GLOBAL__N_112IsLegalTradeERKNS0_5BoardERKNS0_5TradeERKSt6vectorIiSaIiEESC_(i32 %.val, ptr noundef nonnull align 8 dereferenceable(48) %2, ptr %.val2, ptr %.val3)
  ret i1 %10
}